; Function Attrs: nofree nosync nounwind memory(readwrite, inaccessiblemem: none) uwtable
define void @Rwr_CutIsBoolean_rec(ptr noundef %0, ptr noundef readonly captures(none) %1, i32 noundef %2) local_unnamed_addr #4 {
  %4 = getelementptr inbounds nuw i8, ptr %1, i64 4
  %5 = getelementptr inbounds nuw i8, ptr %1, i64 8
  br label %tailrecurse

tailrecurse:                                      ; preds = %Vec_PtrFind.exit22.thread, %3
  %.tr = phi ptr [ %0, %3 ], [ %36, %Vec_PtrFind.exit22.thread ]
  %6 = load i32, ptr %4, align 4, !tbaa !32
  %7 = icmp sgt i32 %6, 0
  br i1 %7, label %.lr.ph.i, label %Vec_PtrFind.exit22.thread

.lr.ph.i:                                         ; preds = %tailrecurse
  %8 = load ptr, ptr %5, align 8, !tbaa !35
  %wide.trip.count.i = zext nneg i32 %6 to i64
  br label %9

9:                                                ; preds = %13, %.lr.ph.i
  %indvars.iv.i = phi i64 [ 0, %.lr.ph.i ], [ %indvars.iv.next.i, %13 ]
  %10 = getelementptr inbounds nuw ptr, ptr %8, i64 %indvars.iv.i
  %11 = load ptr, ptr %10, align 8, !tbaa !36
  %12 = icmp eq ptr %11, %.tr
  br i1 %12, label %Vec_PtrFind.exit, label %13

13:                                               ; preds = %9
  %indvars.iv.next.i = add nuw nsw i64 %indvars.iv.i, 1
  %exitcond.not.i = icmp eq i64 %indvars.iv.next.i, %wide.trip.count.i
  br i1 %exitcond.not.i, label %Vec_PtrFind.exit.thread, label %9, !llvm.loop !97

Vec_PtrFind.exit.thread:                          ; preds = %13
  %14 = ptrtoint ptr %.tr to i64
  %15 = xor i64 %14, 1
  %16 = inttoptr i64 %15 to ptr
  br label %17

17:                                               ; preds = %21, %Vec_PtrFind.exit.thread
  %indvars.iv.i18 = phi i64 [ 0, %Vec_PtrFind.exit.thread ], [ %indvars.iv.next.i19, %21 ]
  %18 = getelementptr inbounds nuw ptr, ptr %8, i64 %indvars.iv.i18
  %19 = load ptr, ptr %18, align 8, !tbaa !36
  %20 = icmp eq ptr %19, %16
  br i1 %20, label %Vec_PtrFind.exit, label %21

21:                                               ; preds = %17
  %indvars.iv.next.i19 = add nuw nsw i64 %indvars.iv.i18, 1
  %exitcond.not.i20 = icmp eq i64 %indvars.iv.next.i19, %wide.trip.count.i
  br i1 %exitcond.not.i20, label %Vec_PtrFind.exit22.thread, label %17, !llvm.loop !97

Vec_PtrFind.exit:                                 ; preds = %9, %17
  %.not = icmp eq i32 %2, 0
  %22 = getelementptr inbounds nuw i8, ptr %.tr, i64 20
  %23 = load i32, ptr %22, align 4
  %. = select i1 %.not, i32 32, i32 16
  %24 = or i32 %23, %.
  store i32 %24, ptr %22, align 4
  ret void

Vec_PtrFind.exit22.thread:                        ; preds = %21, %tailrecurse
  %.val = load ptr, ptr %.tr, align 8, !tbaa !39
  %25 = getelementptr i8, ptr %.tr, i64 32
  %.val12 = load ptr, ptr %25, align 8, !tbaa !98
  %26 = getelementptr i8, ptr %.val, i64 32
  %.val.val = load ptr, ptr %26, align 8, !tbaa !45
  %.val12.val = load i32, ptr %.val12, align 4, !tbaa !25
  %27 = getelementptr i8, ptr %.val.val, i64 8
  %.val.val.val = load ptr, ptr %27, align 8, !tbaa !35
  %28 = sext i32 %.val12.val to i64
  %29 = getelementptr inbounds ptr, ptr %.val.val.val, i64 %28
  %30 = load ptr, ptr %29, align 8, !tbaa !36
  tail call void @Rwr_CutIsBoolean_rec(ptr noundef %30, ptr noundef %1, i32 noundef %2)
  %.val13 = load ptr, ptr %.tr, align 8, !tbaa !39
  %.val14 = load ptr, ptr %25, align 8, !tbaa !98
  %31 = getelementptr i8, ptr %.val13, i64 32
  %.val13.val = load ptr, ptr %31, align 8, !tbaa !45
  %32 = getelementptr i8, ptr %.val14, i64 4
  %.val14.val = load i32, ptr %32, align 4, !tbaa !25
  %33 = getelementptr i8, ptr %.val13.val, i64 8
  %.val13.val.val = load ptr, ptr %33, align 8, !tbaa !35
  %34 = sext i32 %.val14.val to i64
  %35 = getelementptr inbounds ptr, ptr %.val13.val.val, i64 %34
  %36 = load ptr, ptr %35, align 8, !tbaa !36
  br label %tailrecurse
}